; ModuleID = 'source-C-CXX/61/1344.cpp'
source_filename = "source-C-CXX/61/1344.cpp"
target datalayout = "e-m:e-p270:32:32-p271:32:32-p272:64:64-i64:64-f80:128-n8:16:32:64-S128"
target triple = "x86_64-pc-linux-gnu"

%"class.std::ios_base::Init" = type { i8 }
%"class.std::basic_istream" = type { i32 (...)**, i64, %"class.std::basic_ios" }
%"class.std::basic_ios" = type { %"class.std::ios_base", %"class.std::basic_ostream"*, i8, i8, %"class.std::basic_streambuf"*, %"class.std::ctype"*, %"class.std::num_put"*, %"class.std::num_get"* }
%"class.std::ios_base" = type { i32 (...)**, i64, i64, i32, i32, i32, %"struct.std::ios_base::_Callback_list"*, %"struct.std::ios_base::_Words", [8 x %"struct.std::ios_base::_Words"], i32, %"struct.std::ios_base::_Words"*, %"class.std::locale" }
%"struct.std::ios_base::_Callback_list" = type { %"struct.std::ios_base::_Callback_list"*, void (i32, %"class.std::ios_base"*, i32)*, i32, i32 }
%"struct.std::ios_base::_Words" = type { i8*, i64 }
%"class.std::locale" = type { %"class.std::locale::_Impl"* }
%"class.std::locale::_Impl" = type { i32, %"class.std::locale::facet"**, i64, %"class.std::locale::facet"**, i8** }
%"class.std::locale::facet" = type <{ i32 (...)**, i32, [4 x i8] }>
%"class.std::basic_ostream" = type { i32 (...)**, %"class.std::basic_ios" }
%"class.std::basic_streambuf" = type { i32 (...)**, i8*, i8*, i8*, i8*, i8*, i8*, %"class.std::locale" }
%"class.std::ctype" = type <{ %"class.std::locale::facet.base", [4 x i8], %struct.__locale_struct*, i8, [7 x i8], i32*, i32*, i16*, i8, [256 x i8], [256 x i8], i8, [6 x i8] }>
%"class.std::locale::facet.base" = type <{ i32 (...)**, i32 }>
%struct.__locale_struct = type { [13 x %struct.__locale_data*], i16*, i32*, i32*, [13 x i8*] }
%struct.__locale_data = type opaque
%"class.std::num_put" = type { %"class.std::locale::facet.base", [4 x i8] }
%"class.std::num_get" = type { %"class.std::locale::facet.base", [4 x i8] }

@_ZStL8__ioinit = internal global %"class.std::ios_base::Init" zeroinitializer, align 1
@__dso_handle = external hidden global i8
@_ZSt3cin = external global %"class.std::basic_istream", align 8
@_ZSt4cout = external global %"class.std::basic_ostream", align 8
@llvm.global_ctors = appending global [1 x { i32, void ()*, i8* }] [{ i32, void ()*, i8* } { i32 65535, void ()* @_GLOBAL__sub_I_1344.cpp, i8* null }]

declare void @_ZNSt8ios_base4InitC1Ev(%"class.std::ios_base::Init"* nonnull align 1 dereferenceable(1)) unnamed_addr #0

; Function Attrs: nounwind
declare void @_ZNSt8ios_base4InitD1Ev(%"class.std::ios_base::Init"* nonnull align 1 dereferenceable(1)) unnamed_addr #1

; Function Attrs: nofree nounwind
declare i32 @__cxa_atexit(void (i8*)*, i8*, i8*) local_unnamed_addr #2

; Function Attrs: mustprogress norecurse sspstrong uwtable
define dso_local i32 @main() local_unnamed_addr #3 {
  %1 = alloca i8, align 1
  %2 = alloca [1000 x i8], align 16
  %3 = getelementptr inbounds [1000 x i8], [1000 x i8]* %2, i64 0, i64 0
  call void @llvm.lifetime.start.p0i8(i64 1000, i8* nonnull %3) #9
  %4 = load i8*, i8** bitcast (%"class.std::basic_istream"* @_ZSt3cin to i8**), align 8, !tbaa !5
  %5 = getelementptr i8, i8* %4, i64 -24
  %6 = bitcast i8* %5 to i64*
  %7 = load i64, i64* %6, align 8
  %8 = add nsw i64 %7, 240
  %9 = getelementptr inbounds i8, i8* bitcast (%"class.std::basic_istream"* @_ZSt3cin to i8*), i64 %8
  %10 = bitcast i8* %9 to %"class.std::ctype"**
  %11 = load %"class.std::ctype"*, %"class.std::ctype"** %10, align 8, !tbaa !8
  %12 = icmp eq %"class.std::ctype"* %11, null
  br i1 %12, label %13, label %14

13:                                               ; preds = %0
  tail call void @_ZSt16__throw_bad_castv() #10
  unreachable

14:                                               ; preds = %0
  %15 = getelementptr inbounds %"class.std::ctype", %"class.std::ctype"* %11, i64 0, i32 8
  %16 = load i8, i8* %15, align 8, !tbaa !13
  %17 = icmp eq i8 %16, 0
  br i1 %17, label %21, label %18

18:                                               ; preds = %14
  %19 = getelementptr inbounds %"class.std::ctype", %"class.std::ctype"* %11, i64 0, i32 9, i64 10
  %20 = load i8, i8* %19, align 1, !tbaa !15
  br label %27

21:                                               ; preds = %14
  tail call void @_ZNKSt5ctypeIcE13_M_widen_initEv(%"class.std::ctype"* nonnull align 8 dereferenceable(570) %11)
  %22 = bitcast %"class.std::ctype"* %11 to i8 (%"class.std::ctype"*, i8)***
  %23 = load i8 (%"class.std::ctype"*, i8)**, i8 (%"class.std::ctype"*, i8)*** %22, align 8, !tbaa !5
  %24 = getelementptr inbounds i8 (%"class.std::ctype"*, i8)*, i8 (%"class.std::ctype"*, i8)** %23, i64 6
  %25 = load i8 (%"class.std::ctype"*, i8)*, i8 (%"class.std::ctype"*, i8)** %24, align 8
  %26 = tail call signext i8 %25(%"class.std::ctype"* nonnull align 8 dereferenceable(570) %11, i8 signext 10)
  br label %27

27:                                               ; preds = %18, %21
  %28 = phi i8 [ %20, %18 ], [ %26, %21 ]
  %29 = call nonnull align 8 dereferenceable(16) %"class.std::basic_istream"* @_ZNSi7getlineEPclc(%"class.std::basic_istream"* nonnull align 8 dereferenceable(16) @_ZSt3cin, i8* nonnull %3, i64 1000, i8 signext %28)
  %30 = call i64 @strlen(i8* noundef nonnull %3) #11
  %31 = trunc i64 %30 to i32
  %32 = add i32 %31, -1
  %33 = icmp sgt i32 %31, 0
  br i1 %33, label %34, label %40

34:                                               ; preds = %27
  %35 = shl i64 %30, 32
  %36 = ashr exact i64 %35, 32
  %37 = zext i32 %32 to i64
  %38 = and i64 %30, 4294967295
  %39 = zext i32 %32 to i64
  br label %46

40:                                               ; preds = %192, %27
  %41 = phi i32 [ 0, %27 ], [ %193, %192 ]
  %42 = sub i32 %31, %41
  %43 = icmp sgt i32 %42, 0
  br i1 %43, label %44, label %203

44:                                               ; preds = %40
  %45 = zext i32 %42 to i64
  br label %196

46:                                               ; preds = %34, %192
  %47 = phi i64 [ 0, %34 ], [ %62, %192 ]
  %48 = phi i64 [ 1, %34 ], [ %194, %192 ]
  %49 = phi i32 [ 0, %34 ], [ %193, %192 ]
  %50 = xor i64 %47, -1
  %51 = add nsw i64 %50, %39
  %52 = add i64 %51, -32
  %53 = lshr i64 %52, 5
  %54 = add nuw nsw i64 %53, 1
  %55 = xor i64 %47, -1
  %56 = add nsw i64 %55, %39
  %57 = xor i64 %47, -1
  %58 = add nsw i64 %57, %39
  %59 = getelementptr inbounds [1000 x i8], [1000 x i8]* %2, i64 0, i64 %47
  %60 = load i8, i8* %59, align 1, !tbaa !15
  %61 = icmp eq i8 %60, 32
  %62 = add nuw nsw i64 %47, 1
  br i1 %61, label %63, label %192

63:                                               ; preds = %46
  %64 = getelementptr inbounds [1000 x i8], [1000 x i8]* %2, i64 0, i64 %62
  %65 = icmp slt i64 %62, %36
  br i1 %65, label %66, label %192

66:                                               ; preds = %63
  %67 = icmp ult i64 %62, %37
  %68 = load i8, i8* %64, align 1, !tbaa !15
  %69 = icmp eq i8 %68, 32
  br i1 %67, label %70, label %190

70:                                               ; preds = %66
  br i1 %69, label %71, label %192

71:                                               ; preds = %70
  %72 = icmp ult i64 %58, 8
  %73 = icmp ult i64 %58, 32
  %74 = and i64 %58, -32
  %75 = and i64 %54, 3
  %76 = icmp ult i64 %52, 96
  %77 = and i64 %54, 1152921504606846972
  %78 = icmp eq i64 %75, 0
  %79 = icmp eq i64 %58, %74
  %80 = add i64 %48, %74
  %81 = and i64 %58, 24
  %82 = icmp eq i64 %81, 0
  %83 = and i64 %56, -8
  %84 = add i64 %48, %83
  %85 = icmp eq i64 %56, %83
  br label %86

86:                                               ; preds = %71, %186
  %87 = phi i32 [ %187, %186 ], [ %49, %71 ]
  br i1 %72, label %177, label %88

88:                                               ; preds = %86
  br i1 %73, label %164, label %89

89:                                               ; preds = %88
  br i1 %76, label %143, label %90

90:                                               ; preds = %89, %90
  %91 = phi i64 [ %140, %90 ], [ 0, %89 ]
  %92 = phi i64 [ %141, %90 ], [ %77, %89 ]
  %93 = add i64 %48, %91
  %94 = getelementptr inbounds [1000 x i8], [1000 x i8]* %2, i64 0, i64 %93
  %95 = getelementptr inbounds i8, i8* %94, i64 1
  %96 = bitcast i8* %95 to <16 x i8>*
  %97 = load <16 x i8>, <16 x i8>* %96, align 1, !tbaa !15
  %98 = getelementptr inbounds i8, i8* %94, i64 17
  %99 = bitcast i8* %98 to <16 x i8>*
  %100 = load <16 x i8>, <16 x i8>* %99, align 1, !tbaa !15
  %101 = bitcast i8* %94 to <16 x i8>*
  store <16 x i8> %97, <16 x i8>* %101, align 1, !tbaa !15
  %102 = getelementptr inbounds i8, i8* %94, i64 16
  %103 = bitcast i8* %102 to <16 x i8>*
  store <16 x i8> %100, <16 x i8>* %103, align 1, !tbaa !15
  %104 = or i64 %91, 32
  %105 = add i64 %48, %104
  %106 = getelementptr inbounds [1000 x i8], [1000 x i8]* %2, i64 0, i64 %105
  %107 = getelementptr inbounds i8, i8* %106, i64 1
  %108 = bitcast i8* %107 to <16 x i8>*
  %109 = load <16 x i8>, <16 x i8>* %108, align 1, !tbaa !15
  %110 = getelementptr inbounds i8, i8* %106, i64 17
  %111 = bitcast i8* %110 to <16 x i8>*
  %112 = load <16 x i8>, <16 x i8>* %111, align 1, !tbaa !15
  %113 = bitcast i8* %106 to <16 x i8>*
  store <16 x i8> %109, <16 x i8>* %113, align 1, !tbaa !15
  %114 = getelementptr inbounds i8, i8* %106, i64 16
  %115 = bitcast i8* %114 to <16 x i8>*
  store <16 x i8> %112, <16 x i8>* %115, align 1, !tbaa !15
  %116 = or i64 %91, 64
  %117 = add i64 %48, %116
  %118 = getelementptr inbounds [1000 x i8], [1000 x i8]* %2, i64 0, i64 %117
  %119 = getelementptr inbounds i8, i8* %118, i64 1
  %120 = bitcast i8* %119 to <16 x i8>*
  %121 = load <16 x i8>, <16 x i8>* %120, align 1, !tbaa !15
  %122 = getelementptr inbounds i8, i8* %118, i64 17
  %123 = bitcast i8* %122 to <16 x i8>*
  %124 = load <16 x i8>, <16 x i8>* %123, align 1, !tbaa !15
  %125 = bitcast i8* %118 to <16 x i8>*
  store <16 x i8> %121, <16 x i8>* %125, align 1, !tbaa !15
  %126 = getelementptr inbounds i8, i8* %118, i64 16
  %127 = bitcast i8* %126 to <16 x i8>*
  store <16 x i8> %124, <16 x i8>* %127, align 1, !tbaa !15
  %128 = or i64 %91, 96
  %129 = add i64 %48, %128
  %130 = getelementptr inbounds [1000 x i8], [1000 x i8]* %2, i64 0, i64 %129
  %131 = getelementptr inbounds i8, i8* %130, i64 1
  %132 = bitcast i8* %131 to <16 x i8>*
  %133 = load <16 x i8>, <16 x i8>* %132, align 1, !tbaa !15
  %134 = getelementptr inbounds i8, i8* %130, i64 17
  %135 = bitcast i8* %134 to <16 x i8>*
  %136 = load <16 x i8>, <16 x i8>* %135, align 1, !tbaa !15
  %137 = bitcast i8* %130 to <16 x i8>*
  store <16 x i8> %133, <16 x i8>* %137, align 1, !tbaa !15
  %138 = getelementptr inbounds i8, i8* %130, i64 16
  %139 = bitcast i8* %138 to <16 x i8>*
  store <16 x i8> %136, <16 x i8>* %139, align 1, !tbaa !15
  %140 = add nuw i64 %91, 128
  %141 = add i64 %92, -4
  %142 = icmp eq i64 %141, 0
  br i1 %142, label %143, label %90, !llvm.loop !16

143:                                              ; preds = %90, %89
  %144 = phi i64 [ 0, %89 ], [ %140, %90 ]
  br i1 %78, label %162, label %145

145:                                              ; preds = %143, %145
  %146 = phi i64 [ %159, %145 ], [ %144, %143 ]
  %147 = phi i64 [ %160, %145 ], [ %75, %143 ]
  %148 = add i64 %48, %146
  %149 = getelementptr inbounds [1000 x i8], [1000 x i8]* %2, i64 0, i64 %148
  %150 = getelementptr inbounds i8, i8* %149, i64 1
  %151 = bitcast i8* %150 to <16 x i8>*
  %152 = load <16 x i8>, <16 x i8>* %151, align 1, !tbaa !15
  %153 = getelementptr inbounds i8, i8* %149, i64 17
  %154 = bitcast i8* %153 to <16 x i8>*
  %155 = load <16 x i8>, <16 x i8>* %154, align 1, !tbaa !15
  %156 = bitcast i8* %149 to <16 x i8>*
  store <16 x i8> %152, <16 x i8>* %156, align 1, !tbaa !15
  %157 = getelementptr inbounds i8, i8* %149, i64 16
  %158 = bitcast i8* %157 to <16 x i8>*
  store <16 x i8> %155, <16 x i8>* %158, align 1, !tbaa !15
  %159 = add nuw i64 %146, 32
  %160 = add i64 %147, -1
  %161 = icmp eq i64 %160, 0
  br i1 %161, label %162, label %145, !llvm.loop !19

162:                                              ; preds = %145, %143
  br i1 %79, label %186, label %163

163:                                              ; preds = %162
  br i1 %82, label %177, label %164

164:                                              ; preds = %88, %163
  %165 = phi i64 [ %74, %163 ], [ 0, %88 ]
  br label %166

166:                                              ; preds = %166, %164
  %167 = phi i64 [ %165, %164 ], [ %174, %166 ]
  %168 = add i64 %48, %167
  %169 = getelementptr inbounds [1000 x i8], [1000 x i8]* %2, i64 0, i64 %168
  %170 = getelementptr inbounds i8, i8* %169, i64 1
  %171 = bitcast i8* %170 to <8 x i8>*
  %172 = load <8 x i8>, <8 x i8>* %171, align 1, !tbaa !15
  %173 = bitcast i8* %169 to <8 x i8>*
  store <8 x i8> %172, <8 x i8>* %173, align 1, !tbaa !15
  %174 = add nuw i64 %167, 8
  %175 = icmp eq i64 %174, %83
  br i1 %175, label %176, label %166, !llvm.loop !21

176:                                              ; preds = %166
  br i1 %85, label %186, label %177

177:                                              ; preds = %86, %163, %176
  %178 = phi i64 [ %48, %86 ], [ %80, %163 ], [ %84, %176 ]
  br label %179

179:                                              ; preds = %177, %179
  %180 = phi i64 [ %184, %179 ], [ %178, %177 ]
  %181 = getelementptr inbounds [1000 x i8], [1000 x i8]* %2, i64 0, i64 %180
  %182 = getelementptr inbounds i8, i8* %181, i64 1
  %183 = load i8, i8* %182, align 1, !tbaa !15
  store i8 %183, i8* %181, align 1, !tbaa !15
  %184 = add nuw nsw i64 %180, 1
  %185 = icmp eq i64 %184, %39
  br i1 %185, label %186, label %179, !llvm.loop !22

186:                                              ; preds = %179, %176, %162
  %187 = add nsw i32 %87, 1
  %188 = load i8, i8* %64, align 1, !tbaa !15
  %189 = icmp eq i8 %188, 32
  br i1 %189, label %86, label %192

190:                                              ; preds = %66
  %191 = xor i1 %69, true
  call void @llvm.assume(i1 %191)
  br label %192

192:                                              ; preds = %186, %190, %46, %63, %70
  %193 = phi i32 [ %49, %63 ], [ %49, %190 ], [ %49, %70 ], [ %49, %46 ], [ %187, %186 ]
  %194 = add nuw nsw i64 %48, 1
  %195 = icmp eq i64 %62, %38
  br i1 %195, label %40, label %46, !llvm.loop !24

196:                                              ; preds = %44, %196
  %197 = phi i64 [ 0, %44 ], [ %201, %196 ]
  %198 = getelementptr inbounds [1000 x i8], [1000 x i8]* %2, i64 0, i64 %197
  %199 = load i8, i8* %198, align 1, !tbaa !15
  call void @llvm.lifetime.start.p0i8(i64 1, i8* nonnull %1)
  store i8 %199, i8* %1, align 1, !tbaa !15
  %200 = call nonnull align 8 dereferenceable(8) %"class.std::basic_ostream"* @_ZSt16__ostream_insertIcSt11char_traitsIcEERSt13basic_ostreamIT_T0_ES6_PKS3_l(%"class.std::basic_ostream"* nonnull align 8 dereferenceable(8) @_ZSt4cout, i8* nonnull %1, i64 1)
  call void @llvm.lifetime.end.p0i8(i64 1, i8* nonnull %1)
  %201 = add nuw nsw i64 %197, 1
  %202 = icmp eq i64 %201, %45
  br i1 %202, label %203, label %196, !llvm.loop !25

203:                                              ; preds = %196, %40
  call void @llvm.lifetime.end.p0i8(i64 1000, i8* nonnull %3) #9
  ret i32 0
}

; Function Attrs: argmemonly mustprogress nofree nosync nounwind willreturn
declare void @llvm.lifetime.start.p0i8(i64 immarg, i8* nocapture) #4

; Function Attrs: argmemonly mustprogress nofree nounwind readonly willreturn
declare i64 @strlen(i8* nocapture) local_unnamed_addr #5

; Function Attrs: argmemonly mustprogress nofree nosync nounwind willreturn
declare void @llvm.lifetime.end.p0i8(i64 immarg, i8* nocapture) #4

declare nonnull align 8 dereferenceable(16) %"class.std::basic_istream"* @_ZNSi7getlineEPclc(%"class.std::basic_istream"* nonnull align 8 dereferenceable(16), i8*, i64, i8 signext) local_unnamed_addr #0

; Function Attrs: noreturn
declare void @_ZSt16__throw_bad_castv() local_unnamed_addr #6

declare void @_ZNKSt5ctypeIcE13_M_widen_initEv(%"class.std::ctype"* nonnull align 8 dereferenceable(570)) local_unnamed_addr #0

declare nonnull align 8 dereferenceable(8) %"class.std::basic_ostream"* @_ZSt16__ostream_insertIcSt11char_traitsIcEERSt13basic_ostreamIT_T0_ES6_PKS3_l(%"class.std::basic_ostream"* nonnull align 8 dereferenceable(8), i8*, i64) local_unnamed_addr #0

; Function Attrs: sspstrong uwtable
define internal void @_GLOBAL__sub_I_1344.cpp() #7 section ".text.startup" {
  tail call void @_ZNSt8ios_base4InitC1Ev(%"class.std::ios_base::Init"* nonnull align 1 dereferenceable(1) @_ZStL8__ioinit)
  %1 = tail call i32 @__cxa_atexit(void (i8*)* bitcast (void (%"class.std::ios_base::Init"*)* @_ZNSt8ios_base4InitD1Ev to void (i8*)*), i8* getelementptr inbounds (%"class.std::ios_base::Init", %"class.std::ios_base::Init"* @_ZStL8__ioinit, i64 0, i32 0), i8* nonnull @__dso_handle) #9
  ret void
}

; Function Attrs: inaccessiblememonly nofree nosync nounwind willreturn
declare void @llvm.assume(i1 noundef) #8


!llvm.module.flags = !{!0, !1, !2, !3}
!llvm.ident = !{!4}

!0 = !{i32 1, !"wchar_size", i32 4}
!1 = !{i32 7, !"PIC Level", i32 2}
!2 = !{i32 7, !"PIE Level", i32 2}
!3 = !{i32 7, !"uwtable", i32 1}
!4 = !{!"clang version 13.0.0"}
!5 = !{!6, !6, i64 0}
!6 = !{!"vtable pointer", !7, i64 0}
!7 = !{!"Simple C++ TBAA"}
!8 = !{!9, !10, i64 240}
!9 = !{!"_ZTSSt9basic_iosIcSt11char_traitsIcEE", !10, i64 216, !11, i64 224, !12, i64 225, !10, i64 232, !10, i64 240, !10, i64 248, !10, i64 256}
!10 = !{!"any pointer", !11, i64 0}
!11 = !{!"omnipotent char", !7, i64 0}
!12 = !{!"bool", !11, i64 0}
!13 = !{!14, !11, i64 56}
!14 = !{!"_ZTSSt5ctypeIcE", !10, i64 16, !12, i64 24, !10, i64 32, !10, i64 40, !10, i64 48, !11, i64 56, !11, i64 57, !11, i64 313, !11, i64 569}
!15 = !{!11, !11, i64 0}
!16 = distinct !{!16, !17, !18}
!17 = !{!"llvm.loop.mustprogress"}
!18 = !{!"llvm.loop.isvectorized", i32 1}
!19 = distinct !{!19, !20}
!20 = !{!"llvm.loop.unroll.disable"}
!21 = distinct !{!21, !17, !18}
!22 = distinct !{!22, !17, !23, !18}
!23 = !{!"llvm.loop.unroll.runtime.disable"}
!24 = distinct !{!24, !17}
!25 = distinct !{!25, !17}
